target datalayout = "e-m:e-p270:32:32-p271:32:32-p272:64:64-i64:64-i128:128-f80:128-n8:16:32:64-S128"
target triple = "x86_64-pc-linux-gnu"

%struct._zend_output_globals = type { %struct._zend_stack, ptr, ptr, ptr, i32, i32 }
%struct._zend_stack = type { i32, i32, i32, ptr }
%struct._zend_refcounted_h = type { i32, %union.anon }
%union.anon = type { i32 }
%struct._zend_string = type { %struct._zend_refcounted_h, i64, i64, [1 x i8] }

@output_globals = dso_local global %struct._zend_output_globals zeroinitializer, align 8

; Function Attrs: alwaysinline nounwind uwtable
define internal i32 @zend_gc_delref(ptr noundef %0) #5 {
  %2 = alloca ptr, align 8
  store ptr %0, ptr %2, align 8, !tbaa !95
  %3 = load ptr, ptr %2, align 8, !tbaa !95
  %4 = getelementptr inbounds nuw %struct._zend_refcounted_h, ptr %3, i32 0, i32 0
  %5 = load i32, ptr %4, align 4, !tbaa !97
  %6 = icmp ugt i32 %5, 0
  call void @llvm.assume(i1 %6)
  br label %7

7:                                                ; preds = %1
  br label %8

8:                                                ; preds = %7
  %9 = load ptr, ptr %2, align 8, !tbaa !95
  %10 = getelementptr inbounds nuw %struct._zend_refcounted_h, ptr %9, i32 0, i32 0
  %11 = load i32, ptr %10, align 4, !tbaa !97
  %12 = add i32 %11, -1
  store i32 %12, ptr %10, align 4, !tbaa !97
  ret i32 %12
}

; Function Attrs: alwaysinline nounwind uwtable
define internal i32 @zval_gc_flags(i32 noundef %0) #5 {
  %2 = alloca i32, align 4
  store i32 %0, ptr %2, align 4, !tbaa !57
  %3 = load i32, ptr %2, align 4, !tbaa !57
  %4 = lshr i32 %3, 0
  %5 = and i32 %4, 1008
  ret i32 %5
}

; Function Attrs: alwaysinline nounwind uwtable
define internal void @zend_string_release(ptr noundef %0) #5 {
  %2 = alloca ptr, align 8
  store ptr %0, ptr %2, align 8, !tbaa !56
  %3 = load ptr, ptr %2, align 8, !tbaa !56
  %4 = getelementptr inbounds nuw %struct._zend_string, ptr %3, i32 0, i32 0
  %5 = getelementptr inbounds nuw %struct._zend_refcounted_h, ptr %4, i32 0, i32 1
  %6 = load i32, ptr %5, align 4, !tbaa !12
  %7 = call i32 @zval_gc_flags(i32 noundef %6)
  %8 = and i32 %7, 64
  %9 = icmp ne i32 %8, 0
  br i1 %9, label %29, label %10

10:                                               ; preds = %1
  %11 = load ptr, ptr %2, align 8, !tbaa !56
  %12 = getelementptr inbounds nuw %struct._zend_string, ptr %11, i32 0, i32 0
  %13 = call i32 @zend_gc_delref(ptr noundef %12)
  %14 = icmp eq i32 %13, 0
  br i1 %14, label %15, label %28

15:                                               ; preds = %10
  %16 = load ptr, ptr %2, align 8, !tbaa !56
  %17 = getelementptr inbounds nuw %struct._zend_string, ptr %16, i32 0, i32 0
  %18 = getelementptr inbounds nuw %struct._zend_refcounted_h, ptr %17, i32 0, i32 1
  %19 = load i32, ptr %18, align 4, !tbaa !12
  %20 = call i32 @zval_gc_flags(i32 noundef %19)
  %21 = and i32 %20, 128
  %22 = icmp ne i32 %21, 0
  br i1 %22, label %23, label %25

23:                                               ; preds = %15
  %24 = load ptr, ptr %2, align 8, !tbaa !56
  call void @free(ptr noundef %24) #15
  br label %27

25:                                               ; preds = %15
  %26 = load ptr, ptr %2, align 8, !tbaa !56
  call void @_efree(ptr noundef %26)
  br label %27

27:                                               ; preds = %25, %23
  br label %28

28:                                               ; preds = %27, %10
  br label %29

29:                                               ; preds = %28, %1
  ret void
}

; Function Attrs: nounwind uwtable
define dso_local void @php_output_handler_free(ptr noundef %0) #0 {
  %2 = alloca ptr, align 8
  store ptr %0, ptr %2, align 8, !tbaa !27
  %3 = load ptr, ptr %2, align 8, !tbaa !27
  %4 = load ptr, ptr %3, align 8, !tbaa !55
  %5 = icmp ne ptr %4, null
  br i1 %5, label %6, label %12

6:                                                ; preds = %1
  %7 = load ptr, ptr %2, align 8, !tbaa !27
  %8 = load ptr, ptr %7, align 8, !tbaa !55
  call void @php_output_handler_dtor(ptr noundef %8)
  %9 = load ptr, ptr %2, align 8, !tbaa !27
  %10 = load ptr, ptr %9, align 8, !tbaa !55
  call void @_efree(ptr noundef %10)
  %11 = load ptr, ptr %2, align 8, !tbaa !27
  store ptr null, ptr %11, align 8, !tbaa !55
  br label %12

12:                                               ; preds = %6, %1
  ret void
}

; Function Attrs: nounwind uwtable
define dso_local void @php_output_deactivate() #0 {
  %1 = alloca ptr, align 8
  call void @llvm.lifetime.start.p0(i64 8, ptr %1) #15
  store ptr null, ptr %1, align 8, !tbaa !27
  %2 = load i32, ptr getelementptr inbounds nuw (%struct._zend_output_globals, ptr @output_globals, i32 0, i32 5), align 4, !tbaa !21
  %3 = and i32 %2, 1048576
  %4 = icmp ne i32 %3, 0
  br i1 %4, label %5, label %18

5:                                                ; preds = %0
  call void @php_output_header()
  %6 = load i32, ptr getelementptr inbounds nuw (%struct._zend_output_globals, ptr @output_globals, i32 0, i32 5), align 4, !tbaa !21
  %7 = xor i32 %6, 1048576
  store i32 %7, ptr getelementptr inbounds nuw (%struct._zend_output_globals, ptr @output_globals, i32 0, i32 5), align 4, !tbaa !21
  store ptr null, ptr getelementptr inbounds nuw (%struct._zend_output_globals, ptr @output_globals, i32 0, i32 1), align 8, !tbaa !29
  store ptr null, ptr getelementptr inbounds nuw (%struct._zend_output_globals, ptr @output_globals, i32 0, i32 2), align 8, !tbaa !30
  %8 = load ptr, ptr getelementptr inbounds nuw (%struct._zend_stack, ptr @output_globals, i32 0, i32 3), align 8, !tbaa !31
  %9 = icmp ne ptr %8, null
  br i1 %9, label %10, label %17

10:                                               ; preds = %5
  br label %11

11:                                               ; preds = %14, %10
  %12 = call ptr @zend_stack_top(ptr noundef @output_globals)
  store ptr %12, ptr %1, align 8, !tbaa !27
  %13 = icmp ne ptr %12, null
  br i1 %13, label %14, label %16

14:                                               ; preds = %11
  %15 = load ptr, ptr %1, align 8, !tbaa !27
  call void @php_output_handler_free(ptr noundef %15)
  call void @zend_stack_del_top(ptr noundef @output_globals)
  br label %11

16:                                               ; preds = %11
  br label %17

17:                                               ; preds = %16, %5
  call void @zend_stack_destroy(ptr noundef @output_globals)
  br label %18

18:                                               ; preds = %17, %0
  %19 = load ptr, ptr getelementptr inbounds nuw (%struct._zend_output_globals, ptr @output_globals, i32 0, i32 3), align 8, !tbaa !32
  %20 = icmp ne ptr %19, null
  br i1 %20, label %21, label %23

21:                                               ; preds = %18
  %22 = load ptr, ptr getelementptr inbounds nuw (%struct._zend_output_globals, ptr @output_globals, i32 0, i32 3), align 8, !tbaa !32
  call void @zend_string_release(ptr noundef %22)
  store ptr null, ptr getelementptr inbounds nuw (%struct._zend_output_globals, ptr @output_globals, i32 0, i32 3), align 8, !tbaa !32
  br label %23

23:                                               ; preds = %21, %18
  call void @llvm.lifetime.end.p0(i64 8, ptr %1) #15
  ret void
}