; Function Attrs: nounwind uwtable
define dso_local void @php_output_deactivate() local_unnamed_addr #0 {
  %1 = load i32, ptr getelementptr inbounds nuw (i8, ptr @output_globals, i64 52), align 4, !tbaa !11
  %2 = and i32 %1, 1048576
  %.not = icmp eq i32 %2, 0
  br i1 %.not, label %13, label %3

3:                                                ; preds = %0
  tail call fastcc void @php_output_header()
  %4 = load i32, ptr getelementptr inbounds nuw (i8, ptr @output_globals, i64 52), align 4, !tbaa !11
  %5 = xor i32 %4, 1048576
  store i32 %5, ptr getelementptr inbounds nuw (i8, ptr @output_globals, i64 52), align 4, !tbaa !11
  tail call void @llvm.memset.p0.i64(ptr noundef nonnull align 8 dereferenceable(16) getelementptr inbounds nuw (i8, ptr @output_globals, i64 24), i8 0, i64 16, i1 false)
  %6 = load ptr, ptr getelementptr inbounds nuw (i8, ptr @output_globals, i64 16), align 8, !tbaa !17
  %.not2 = icmp eq ptr %6, null
  br i1 %.not2, label %.loopexit, label %.preheader

.preheader:                                       ; preds = %3
  %7 = tail call ptr @zend_stack_top(ptr noundef nonnull @output_globals) #22
  %.not36 = icmp eq ptr %7, null
  br i1 %.not36, label %.loopexit, label %.lr.ph

.lr.ph:                                           ; preds = %.preheader, %php_output_handler_free.exit
  %8 = phi ptr [ %12, %php_output_handler_free.exit ], [ %7, %.preheader ]
  %9 = load ptr, ptr %8, align 8, !tbaa !18
  %.not.i5 = icmp eq ptr %9, null
  br i1 %.not.i5, label %php_output_handler_free.exit, label %10

10:                                               ; preds = %.lr.ph
  tail call void @php_output_handler_dtor(ptr noundef nonnull %9)
  %11 = load ptr, ptr %8, align 8, !tbaa !18
  tail call void @_efree(ptr noundef %11) #22
  store ptr null, ptr %8, align 8, !tbaa !18
  br label %php_output_handler_free.exit

php_output_handler_free.exit:                     ; preds = %.lr.ph, %10
  tail call void @zend_stack_del_top(ptr noundef nonnull @output_globals) #22
  %12 = tail call ptr @zend_stack_top(ptr noundef nonnull @output_globals) #22
  %.not3 = icmp eq ptr %12, null
  br i1 %.not3, label %.loopexit, label %.lr.ph

.loopexit:                                        ; preds = %php_output_handler_free.exit, %.preheader, %3
  tail call void @zend_stack_destroy(ptr noundef nonnull @output_globals) #22
  br label %13

13:                                               ; preds = %.loopexit, %0
  %14 = load ptr, ptr getelementptr inbounds nuw (i8, ptr @output_globals, i64 40), align 8, !tbaa !19
  %.not4 = icmp eq ptr %14, null
  br i1 %.not4, label %28, label %15

15:                                               ; preds = %13
  %16 = getelementptr inbounds nuw i8, ptr %14, i64 4
  %17 = load i32, ptr %16, align 4, !tbaa !8
  %18 = and i32 %17, 64
  %.not.i = icmp eq i32 %18, 0
  br i1 %.not.i, label %19, label %zend_string_release.exit

19:                                               ; preds = %15
  %20 = load i32, ptr %14, align 4, !tbaa !20
  %21 = icmp ne i32 %20, 0
  tail call void @llvm.assume(i1 %21)
  %22 = add i32 %20, -1
  store i32 %22, ptr %14, align 4, !tbaa !20
  %23 = icmp eq i32 %22, 0
  br i1 %23, label %24, label %zend_string_release.exit

24:                                               ; preds = %19
  %25 = and i32 %17, 128
  %.not5.i = icmp eq i32 %25, 0
  br i1 %.not5.i, label %27, label %26

26:                                               ; preds = %24
  tail call void @free(ptr noundef nonnull %14) #22
  br label %zend_string_release.exit

27:                                               ; preds = %24
  tail call void @_efree(ptr noundef nonnull %14) #22
  br label %zend_string_release.exit

zend_string_release.exit:                         ; preds = %15, %19, %26, %27
  store ptr null, ptr getelementptr inbounds nuw (i8, ptr @output_globals, i64 40), align 8, !tbaa !19
  br label %28

28:                                               ; preds = %zend_string_release.exit, %13
  ret void
}